target datalayout = "e-m:e-p270:32:32-p271:32:32-p272:64:64-i64:64-i128:128-f80:128-n8:16:32:64-S128"
target triple = "x86_64-pc-linux-gnu"

%struct.cbuf = type { %union.pthread_mutex_t, i32, i32, i32, i32, i32, i32, i32, i32, i32, i32, ptr }
%union.pthread_mutex_t = type { %struct.__pthread_mutex_s }
%struct.__pthread_mutex_s = type { i32, i32, i32, i32, i32, i16, i16, %struct.__pthread_internal_list }
%struct.__pthread_internal_list = type { ptr, ptr }

@.str.2 = private unnamed_addr constant [29 x i8] c"%s: pthread_mutex_lock(): %m\00", align 1
@.str.3 = private unnamed_addr constant [31 x i8] c"%s: pthread_mutex_unlock(): %m\00", align 1
@__func__.cbuf_read = private unnamed_addr constant [10 x i8] c"cbuf_read\00", align 1

; Function Attrs: nounwind uwtable
define internal i32 @cbuf_shrink(ptr noundef %0) #0 {
  %2 = alloca i32, align 4
  %3 = alloca ptr, align 8
  store ptr %0, ptr %3, align 8
  %4 = load ptr, ptr %3, align 8
  %5 = getelementptr inbounds nuw %struct.cbuf, ptr %4, i32 0, i32 4
  %6 = load i32, ptr %5, align 4
  %7 = load ptr, ptr %3, align 8
  %8 = getelementptr inbounds nuw %struct.cbuf, ptr %7, i32 0, i32 2
  %9 = load i32, ptr %8, align 4
  %10 = icmp eq i32 %6, %9
  br i1 %10, label %11, label %12

11:                                               ; preds = %1
  store i32 0, ptr %2, align 4
  br label %23

12:                                               ; preds = %1
  %13 = load ptr, ptr %3, align 8
  %14 = getelementptr inbounds nuw %struct.cbuf, ptr %13, i32 0, i32 4
  %15 = load i32, ptr %14, align 4
  %16 = load ptr, ptr %3, align 8
  %17 = getelementptr inbounds nuw %struct.cbuf, ptr %16, i32 0, i32 5
  %18 = load i32, ptr %17, align 8
  %19 = sub nsw i32 %15, %18
  %20 = icmp sle i32 %19, 1000
  br i1 %20, label %21, label %22

21:                                               ; preds = %12
  store i32 0, ptr %2, align 4
  br label %23

22:                                               ; preds = %12
  store i32 0, ptr %2, align 4
  br label %23

23:                                               ; preds = %22, %21, %11
  %24 = load i32, ptr %2, align 4
  ret i32 %24
}

; Function Attrs: nounwind uwtable
define internal i32 @cbuf_dropper(ptr noundef %0, i32 noundef %1) #0 {
  %3 = alloca ptr, align 8
  %4 = alloca i32, align 4
  store ptr %0, ptr %3, align 8
  store i32 %1, ptr %4, align 4
  %5 = load i32, ptr %4, align 4
  %6 = load ptr, ptr %3, align 8
  %7 = getelementptr inbounds nuw %struct.cbuf, ptr %6, i32 0, i32 5
  %8 = load i32, ptr %7, align 8
  %9 = sub nsw i32 %8, %5
  store i32 %9, ptr %7, align 8
  %10 = load ptr, ptr %3, align 8
  %11 = getelementptr inbounds nuw %struct.cbuf, ptr %10, i32 0, i32 9
  %12 = load i32, ptr %11, align 8
  %13 = load i32, ptr %4, align 4
  %14 = add nsw i32 %12, %13
  %15 = load ptr, ptr %3, align 8
  %16 = getelementptr inbounds nuw %struct.cbuf, ptr %15, i32 0, i32 4
  %17 = load i32, ptr %16, align 4
  %18 = add nsw i32 %17, 1
  %19 = srem i32 %14, %18
  %20 = load ptr, ptr %3, align 8
  %21 = getelementptr inbounds nuw %struct.cbuf, ptr %20, i32 0, i32 9
  store i32 %19, ptr %21, align 8
  %22 = load ptr, ptr %3, align 8
  %23 = getelementptr inbounds nuw %struct.cbuf, ptr %22, i32 0, i32 4
  %24 = load i32, ptr %23, align 4
  %25 = load ptr, ptr %3, align 8
  %26 = getelementptr inbounds nuw %struct.cbuf, ptr %25, i32 0, i32 5
  %27 = load i32, ptr %26, align 8
  %28 = sub nsw i32 %24, %27
  %29 = icmp sgt i32 %28, 1000
  br i1 %29, label %30, label %41

30:                                               ; preds = %2
  %31 = load ptr, ptr %3, align 8
  %32 = getelementptr inbounds nuw %struct.cbuf, ptr %31, i32 0, i32 4
  %33 = load i32, ptr %32, align 4
  %34 = load ptr, ptr %3, align 8
  %35 = getelementptr inbounds nuw %struct.cbuf, ptr %34, i32 0, i32 2
  %36 = load i32, ptr %35, align 4
  %37 = icmp sgt i32 %33, %36
  br i1 %37, label %38, label %41

38:                                               ; preds = %30
  %39 = load ptr, ptr %3, align 8
  %40 = call i32 @cbuf_shrink(ptr noundef %39)
  br label %41

41:                                               ; preds = %38, %30, %2
  %42 = load i32, ptr %4, align 4
  ret i32 %42
}

; Function Attrs: nounwind uwtable
define internal i32 @cbuf_reader(ptr noundef %0, i32 noundef %1, ptr noundef %2, ptr noundef %3) #0 {
  %5 = alloca i32, align 4
  %6 = alloca ptr, align 8
  %7 = alloca i32, align 4
  %8 = alloca ptr, align 8
  %9 = alloca ptr, align 8
  %10 = alloca i32, align 4
  %11 = alloca i32, align 4
  %12 = alloca i32, align 4
  %13 = alloca i32, align 4
  %14 = alloca i32, align 4
  store ptr %0, ptr %6, align 8
  store i32 %1, ptr %7, align 4
  store ptr %2, ptr %8, align 8
  store ptr %3, ptr %9, align 8
  call void @llvm.lifetime.start.p0(i64 4, ptr %10) #8
  call void @llvm.lifetime.start.p0(i64 4, ptr %11) #8
  call void @llvm.lifetime.start.p0(i64 4, ptr %12) #8
  call void @llvm.lifetime.start.p0(i64 4, ptr %13) #8
  %15 = load i32, ptr %7, align 4
  %16 = load ptr, ptr %6, align 8
  %17 = getelementptr inbounds nuw %struct.cbuf, ptr %16, i32 0, i32 5
  %18 = load i32, ptr %17, align 8
  %19 = icmp slt i32 %15, %18
  br i1 %19, label %20, label %22

20:                                               ; preds = %4
  %21 = load i32, ptr %7, align 4
  br label %26

22:                                               ; preds = %4
  %23 = load ptr, ptr %6, align 8
  %24 = getelementptr inbounds nuw %struct.cbuf, ptr %23, i32 0, i32 5
  %25 = load i32, ptr %24, align 8
  br label %26

26:                                               ; preds = %22, %20
  %27 = phi i32 [ %21, %20 ], [ %25, %22 ]
  store i32 %27, ptr %7, align 4
  %28 = load i32, ptr %7, align 4
  %29 = icmp eq i32 %28, 0
  br i1 %29, label %30, label %31

30:                                               ; preds = %26
  store i32 0, ptr %5, align 4
  store i32 1, ptr %14, align 4
  br label %99

31:                                               ; preds = %26
  %32 = load ptr, ptr %6, align 8
  %33 = getelementptr inbounds nuw %struct.cbuf, ptr %32, i32 0, i32 9
  %34 = load i32, ptr %33, align 8
  store i32 %34, ptr %13, align 4
  %35 = load i32, ptr %7, align 4
  store i32 %35, ptr %10, align 4
  store i32 0, ptr %12, align 4
  br label %36

36:                                               ; preds = %88, %31
  %37 = load i32, ptr %10, align 4
  %38 = icmp sgt i32 %37, 0
  br i1 %38, label %39, label %89

39:                                               ; preds = %36
  %40 = load i32, ptr %10, align 4
  %41 = load ptr, ptr %6, align 8
  %42 = getelementptr inbounds nuw %struct.cbuf, ptr %41, i32 0, i32 4
  %43 = load i32, ptr %42, align 4
  %44 = add nsw i32 %43, 1
  %45 = load i32, ptr %13, align 4
  %46 = sub nsw i32 %44, %45
  %47 = icmp slt i32 %40, %46
  br i1 %47, label %48, label %50

48:                                               ; preds = %39
  %49 = load i32, ptr %10, align 4
  br label %57

50:                                               ; preds = %39
  %51 = load ptr, ptr %6, align 8
  %52 = getelementptr inbounds nuw %struct.cbuf, ptr %51, i32 0, i32 4
  %53 = load i32, ptr %52, align 4
  %54 = add nsw i32 %53, 1
  %55 = load i32, ptr %13, align 4
  %56 = sub nsw i32 %54, %55
  br label %57

57:                                               ; preds = %50, %48
  %58 = phi i32 [ %49, %48 ], [ %56, %50 ]
  store i32 %58, ptr %11, align 4
  %59 = load ptr, ptr %8, align 8
  %60 = load ptr, ptr %6, align 8
  %61 = getelementptr inbounds nuw %struct.cbuf, ptr %60, i32 0, i32 11
  %62 = load ptr, ptr %61, align 8
  %63 = load i32, ptr %13, align 4
  %64 = sext i32 %63 to i64
  %65 = getelementptr inbounds i8, ptr %62, i64 %64
  %66 = load ptr, ptr %9, align 8
  %67 = load i32, ptr %11, align 4
  %68 = call i32 %59(ptr noundef %65, ptr noundef %66, i32 noundef %67)
  store i32 %68, ptr %12, align 4
  %69 = load i32, ptr %12, align 4
  %70 = icmp sgt i32 %69, 0
  br i1 %70, label %71, label %83

71:                                               ; preds = %57
  %72 = load i32, ptr %12, align 4
  %73 = load i32, ptr %10, align 4
  %74 = sub nsw i32 %73, %72
  store i32 %74, ptr %10, align 4
  %75 = load i32, ptr %13, align 4
  %76 = load i32, ptr %12, align 4
  %77 = add nsw i32 %75, %76
  %78 = load ptr, ptr %6, align 8
  %79 = getelementptr inbounds nuw %struct.cbuf, ptr %78, i32 0, i32 4
  %80 = load i32, ptr %79, align 4
  %81 = add nsw i32 %80, 1
  %82 = srem i32 %77, %81
  store i32 %82, ptr %13, align 4
  br label %83

83:                                               ; preds = %71, %57
  %84 = load i32, ptr %11, align 4
  %85 = load i32, ptr %12, align 4
  %86 = icmp ne i32 %84, %85
  br i1 %86, label %87, label %88

87:                                               ; preds = %83
  br label %89

88:                                               ; preds = %83
  br label %36, !llvm.loop !12

89:                                               ; preds = %87, %36
  %90 = load i32, ptr %7, align 4
  %91 = load i32, ptr %10, align 4
  %92 = sub nsw i32 %90, %91
  store i32 %92, ptr %11, align 4
  %93 = load i32, ptr %11, align 4
  %94 = icmp eq i32 %93, 0
  br i1 %94, label %95, label %97

95:                                               ; preds = %89
  %96 = load i32, ptr %12, align 4
  store i32 %96, ptr %5, align 4
  store i32 1, ptr %14, align 4
  br label %99

97:                                               ; preds = %89
  %98 = load i32, ptr %11, align 4
  store i32 %98, ptr %5, align 4
  store i32 1, ptr %14, align 4
  br label %99

99:                                               ; preds = %97, %95, %30
  call void @llvm.lifetime.end.p0(i64 4, ptr %13) #8
  call void @llvm.lifetime.end.p0(i64 4, ptr %12) #8
  call void @llvm.lifetime.end.p0(i64 4, ptr %11) #8
  call void @llvm.lifetime.end.p0(i64 4, ptr %10) #8
  %100 = load i32, ptr %5, align 4
  ret i32 %100
}

; Function Attrs: nounwind uwtable
define dso_local i32 @cbuf_read(ptr noundef %0, ptr noundef %1, i32 noundef %2) #0 {
  %4 = alloca i32, align 4
  %5 = alloca ptr, align 8
  %6 = alloca ptr, align 8
  %7 = alloca i32, align 4
  %8 = alloca i32, align 4
  %9 = alloca i32, align 4
  %10 = alloca i32, align 4
  %11 = alloca i32, align 4
  store ptr %0, ptr %5, align 8
  store ptr %1, ptr %6, align 8
  store i32 %2, ptr %7, align 4
  call void @llvm.lifetime.start.p0(i64 4, ptr %8) #8
  %12 = load ptr, ptr %6, align 8
  %13 = icmp eq ptr %12, null
  br i1 %13, label %17, label %14

14:                                               ; preds = %3
  %15 = load i32, ptr %7, align 4
  %16 = icmp slt i32 %15, 0
  br i1 %16, label %17, label %19

17:                                               ; preds = %14, %3
  %18 = call ptr @__errno_location() #9
  store i32 22, ptr %18, align 4
  store i32 -1, ptr %4, align 4
  store i32 1, ptr %9, align 4
  br label %59

19:                                               ; preds = %14
  %20 = load i32, ptr %7, align 4
  %21 = icmp eq i32 %20, 0
  br i1 %21, label %22, label %23

22:                                               ; preds = %19
  store i32 0, ptr %4, align 4
  store i32 1, ptr %9, align 4
  br label %59

23:                                               ; preds = %19
  br label %24

24:                                               ; preds = %23
  call void @llvm.lifetime.start.p0(i64 4, ptr %10) #8
  %25 = load ptr, ptr %5, align 8
  %26 = getelementptr inbounds nuw %struct.cbuf, ptr %25, i32 0, i32 0
  %27 = call i32 @pthread_mutex_lock(ptr noundef %26) #8
  store i32 %27, ptr %10, align 4
  %28 = load i32, ptr %10, align 4
  %29 = icmp ne i32 %28, 0
  br i1 %29, label %30, label %33

30:                                               ; preds = %24
  %31 = load i32, ptr %10, align 4
  %32 = call ptr @__errno_location() #9
  store i32 %31, ptr %32, align 4
  call void (ptr, ...) @fatal_abort(ptr noundef @.str.2, ptr noundef @__func__.cbuf_read) #10
  unreachable

33:                                               ; preds = %24
  call void @llvm.lifetime.end.p0(i64 4, ptr %10) #8
  br label %34

34:                                               ; preds = %33
  br label %35

35:                                               ; preds = %34
  %36 = load ptr, ptr %5, align 8
  %37 = load i32, ptr %7, align 4
  %38 = call i32 @cbuf_reader(ptr noundef %36, i32 noundef %37, ptr noundef @cbuf_put_mem, ptr noundef %6)
  store i32 %38, ptr %8, align 4
  %39 = load i32, ptr %8, align 4
  %40 = icmp sgt i32 %39, 0
  br i1 %40, label %41, label %45

41:                                               ; preds = %35
  %42 = load ptr, ptr %5, align 8
  %43 = load i32, ptr %8, align 4
  %44 = call i32 @cbuf_dropper(ptr noundef %42, i32 noundef %43)
  br label %45

45:                                               ; preds = %41, %35
  br label %46

46:                                               ; preds = %45
  call void @llvm.lifetime.start.p0(i64 4, ptr %11) #8
  %47 = load ptr, ptr %5, align 8
  %48 = getelementptr inbounds nuw %struct.cbuf, ptr %47, i32 0, i32 0
  %49 = call i32 @pthread_mutex_unlock(ptr noundef %48) #8
  store i32 %49, ptr %11, align 4
  %50 = load i32, ptr %11, align 4
  %51 = icmp ne i32 %50, 0
  br i1 %51, label %52, label %55

52:                                               ; preds = %46
  %53 = load i32, ptr %11, align 4
  %54 = call ptr @__errno_location() #9
  store i32 %53, ptr %54, align 4
  call void (ptr, ...) @fatal_abort(ptr noundef @.str.3, ptr noundef @__func__.cbuf_read) #10
  unreachable

55:                                               ; preds = %46
  call void @llvm.lifetime.end.p0(i64 4, ptr %11) #8
  br label %56

56:                                               ; preds = %55
  br label %57

57:                                               ; preds = %56
  %58 = load i32, ptr %8, align 4
  store i32 %58, ptr %4, align 4
  store i32 1, ptr %9, align 4
  br label %59

59:                                               ; preds = %57, %22, %17
  call void @llvm.lifetime.end.p0(i64 4, ptr %8) #8
  %60 = load i32, ptr %4, align 4
  ret i32 %60
}